target datalayout = "e-m:e-p270:32:32-p271:32:32-p272:64:64-i64:64-i128:128-f80:128-n8:16:32:64-S128"
target triple = "x86_64-pc-linux-gnu"

@.str.26 = private unnamed_addr constant [6 x i8] c"z#|zn\00", align 1

; Function Attrs: nounwind uwtable
define internal ptr @bytes_decodeescape(ptr noundef %0, ptr noundef %1) #0 {
  %3 = alloca ptr, align 8
  %4 = alloca ptr, align 8
  %5 = alloca ptr, align 8
  %6 = alloca ptr, align 8
  %7 = alloca i64, align 8
  %8 = alloca i64, align 8
  %9 = alloca ptr, align 8
  %10 = alloca i32, align 4
  store ptr %0, ptr %4, align 8, !tbaa !3
  store ptr %1, ptr %5, align 8, !tbaa !3
  call void @llvm.lifetime.start.p0(i64 8, ptr %6) #6
  call void @llvm.lifetime.start.p0(i64 8, ptr %7) #6
  call void @llvm.lifetime.start.p0(i64 8, ptr %8) #6
  store i64 -100, ptr %8, align 8, !tbaa !8
  call void @llvm.lifetime.start.p0(i64 8, ptr %9) #6
  store ptr null, ptr %9, align 8, !tbaa !10
  %11 = load ptr, ptr %5, align 8, !tbaa !3
  %12 = call i32 (ptr, ptr, ...) @PyArg_ParseTuple(ptr noundef %11, ptr noundef @.str.26, ptr noundef %6, ptr noundef %7, ptr noundef %9, ptr noundef %8)
  %13 = icmp ne i32 %12, 0
  br i1 %13, label %15, label %14

14:                                               ; preds = %2
  store ptr null, ptr %3, align 8
  store i32 1, ptr %10, align 4
  br label %25

15:                                               ; preds = %2
  %16 = load i64, ptr %8, align 8, !tbaa !8
  %17 = icmp eq i64 %16, -100
  br i1 %17, label %18, label %20

18:                                               ; preds = %15
  %19 = load i64, ptr %7, align 8, !tbaa !8
  store i64 %19, ptr %8, align 8, !tbaa !8
  br label %20

20:                                               ; preds = %18, %15
  %21 = load ptr, ptr %6, align 8, !tbaa !10
  %22 = load i64, ptr %8, align 8, !tbaa !8
  %23 = load ptr, ptr %9, align 8, !tbaa !10
  %24 = call ptr @PyBytes_DecodeEscape(ptr noundef %21, i64 noundef %22, ptr noundef %23, i64 noundef 0, ptr noundef null)
  store ptr %24, ptr %3, align 8
  store i32 1, ptr %10, align 4
  br label %25

25:                                               ; preds = %20, %14
  call void @llvm.lifetime.end.p0(i64 8, ptr %9) #6
  call void @llvm.lifetime.end.p0(i64 8, ptr %8) #6
  call void @llvm.lifetime.end.p0(i64 8, ptr %7) #6
  call void @llvm.lifetime.end.p0(i64 8, ptr %6) #6
  %26 = load ptr, ptr %3, align 8
  ret ptr %26
}