; Function Attrs: nounwind uwtable
define internal ptr @bytes_decodeescape(ptr readnone captures(none) %0, ptr noundef %1) #0 {
  %3 = alloca ptr, align 8
  %4 = alloca i64, align 8
  %5 = alloca i64, align 8
  %6 = alloca ptr, align 8
  call void @llvm.lifetime.start.p0(i64 8, ptr nonnull %3) #4
  call void @llvm.lifetime.start.p0(i64 8, ptr nonnull %4) #4
  call void @llvm.lifetime.start.p0(i64 8, ptr nonnull %5) #4
  store i64 -100, ptr %5, align 8, !tbaa !9
  call void @llvm.lifetime.start.p0(i64 8, ptr nonnull %6) #4
  store ptr null, ptr %6, align 8, !tbaa !11
  %7 = call i32 (ptr, ptr, ...) @PyArg_ParseTuple(ptr noundef %1, ptr noundef nonnull @.str.26, ptr noundef nonnull %3, ptr noundef nonnull %4, ptr noundef nonnull %6, ptr noundef nonnull %5) #4
  %.not = icmp eq i32 %7, 0
  br i1 %.not, label %18, label %8

8:                                                ; preds = %2
  %9 = load i64, ptr %5, align 8, !tbaa !9
  %10 = icmp eq i64 %9, -100
  br i1 %10, label %11, label %13

11:                                               ; preds = %8
  %12 = load i64, ptr %4, align 8, !tbaa !9
  store i64 %12, ptr %5, align 8, !tbaa !9
  br label %13

13:                                               ; preds = %11, %8
  %14 = phi i64 [ %12, %11 ], [ %9, %8 ]
  %15 = load ptr, ptr %3, align 8, !tbaa !11
  %16 = load ptr, ptr %6, align 8, !tbaa !11
  %17 = call ptr @PyBytes_DecodeEscape(ptr noundef %15, i64 noundef %14, ptr noundef %16, i64 noundef 0, ptr noundef null) #4
  br label %18

18:                                               ; preds = %2, %13
  %.0 = phi ptr [ %17, %13 ], [ null, %2 ]
  call void @llvm.lifetime.end.p0(i64 8, ptr nonnull %6) #4
  call void @llvm.lifetime.end.p0(i64 8, ptr nonnull %5) #4
  call void @llvm.lifetime.end.p0(i64 8, ptr nonnull %4) #4
  call void @llvm.lifetime.end.p0(i64 8, ptr nonnull %3) #4
  ret ptr %.0
}